; Function Attrs: mustprogress uwtable
define internal void @_ZN32pxrInternal_v0_24__pxrReserved__L16_BadThrowHandlerEv() #0 {
  %1 = alloca %"struct.pxrInternal_v0_24__pxrReserved__::Tf_DiagnosticHelper", align 8
  store ptr @.str.14, ptr %1, align 8
  %.sroa.2.0..sroa_idx = getelementptr inbounds nuw i8, ptr %1, i64 8
  store ptr @__func__._ZN32pxrInternal_v0_24__pxrReserved__L16_BadThrowHandlerEv, ptr %.sroa.2.0..sroa_idx, align 8
  %.sroa.3.0..sroa_idx = getelementptr inbounds nuw i8, ptr %1, i64 16
  store i64 98, ptr %.sroa.3.0..sroa_idx, align 8
  %.sroa.4.0..sroa_idx = getelementptr inbounds nuw i8, ptr %1, i64 24
  store ptr @__PRETTY_FUNCTION__._ZN32pxrInternal_v0_24__pxrReserved__L16_BadThrowHandlerEv, ptr %.sroa.4.0..sroa_idx, align 8
  %.sroa.5.0..sroa_idx = getelementptr inbounds nuw i8, ptr %1, i64 32
  store i8 0, ptr %.sroa.5.0..sroa_idx, align 8
  %2 = getelementptr inbounds nuw i8, ptr %1, i64 40
  store i32 4, ptr %2, align 8
  call void (ptr, ptr, ...) @_ZNK32pxrInternal_v0_24__pxrReserved__19Tf_DiagnosticHelper15IssueFatalErrorEPKcz(ptr noundef nonnull align 8 dereferenceable(44) %1, ptr noundef nonnull @.str.34)
  ret void
}